(dp0
S'METTS MARK'
p1
(dp2
S'to_messages'
p3
I807
sS'deferral_payments'
p4
S'NaN'
p5
sS'expenses'
p6
I94299
sS'proportion_to_poi'
p7
F0.0012391573729863693
sS'poi'
p8
I00
sS'deferred_income'
p9
g5
sS'email_address'
p10
S'mark.metts@enron.com'
p11
sS'long_term_incentive'
p12
g5
sS'restricted_stock_deferred'
p13
g5
sS'shared_receipt_with_poi'
p14
I702
sS'loan_advances'
p15
g5
sS'from_messages'
p16
I29
sS'other'
p17
I1740
sS'director_fees'
p18
g5
sS'bonus'
p19
I600000
sS'total_stock_value'
p20
I585062
sS'from_poi_to_this_person'
p21
I38
sS'from_this_person_to_poi'
p22
I1
sS'restricted_stock'
p23
I585062
sS'salary'
p24
I365788
sS'total_payments'
p25
I1061827
sS'exercised_stock_options'
p26
g5
sS'net_worth'
p27
I1646889
sS'proportion_from_poi'
p28
F1.3103448275862069
ssS'BAXTER JOHN C'
p29
(dp30
g3
g5
sg4
I1295738
sg6
I11200
sg7
F0.0
sg8
I00
sg9
I-1386055
sg10
g5
sg12
I1586055
sg13
g5
sg14
g5
sg15
g5
sg16
g5
sg17
I2660303
sg18
g5
sg19
I1200000
sg20
I10623258
sg21
g5
sg22
g5
sg23
I3942714
sg24
I267102
sg25
I5634343
sg26
I6680544
sg27
I16257601
sg28
F0.0
ssS'ELLIOTT STEVEN'
p31
(dp32
g3
g5
sg4
g5
sg6
I78552
sg7
F0.0
sg8
I00
sg9
I-400729
sg10
S'steven.elliott@enron.com'
p33
sg12
g5
sg13
g5
sg14
g5
sg15
g5
sg16
g5
sg17
I12961
sg18
g5
sg19
I350000
sg20
I6678735
sg21
g5
sg22
g5
sg23
I1788391
sg24
I170941
sg25
I211725
sg26
I4890344
sg27
I6890460
sg28
F0.0
ssS'CORDES WILLIAM R'
p34
(dp35
g3
I764
sg4
g5
sg6
g5
sg7
F0.0
sg8
I00
sg9
g5
sg10
S'bill.cordes@enron.com'
p36
sg12
g5
sg13
g5
sg14
I58
sg15
g5
sg16
I12
sg17
g5
sg18
g5
sg19
g5
sg20
I1038185
sg21
I10
sg22
I0
sg23
I386335
sg24
g5
sg25
g5
sg26
I651850
sg27
S'NaN'
p37
sg28
F0.8333333333333334
ssS'HANNON KEVIN P'
p38
(dp39
g3
I1045
sg4
g5
sg6
I34039
sg7
F0.020095693779904306
sg8
I01
sg9
I-3117011
sg10
S'kevin.hannon@enron.com'
p40
sg12
I1617011
sg13
g5
sg14
I1035
sg15
g5
sg16
I32
sg17
I11350
sg18
g5
sg19
I1500000
sg20
I6391065
sg21
I32
sg22
I21
sg23
I853064
sg24
I243293
sg25
I288682
sg26
I5538001
sg27
I6679747
sg28
F1.0
ssS'MORDAUNT KRISTINA M'
p41
(dp42
g3
g5
sg4
g5
sg6
I35018
sg7
F0.0
sg8
I00
sg9
g5
sg10
S'kristina.mordaunt@enron.com'
p43
sg12
g5
sg13
g5
sg14
g5
sg15
g5
sg16
g5
sg17
I1411
sg18
g5
sg19
I325000
sg20
I208510
sg21
g5
sg22
g5
sg23
I208510
sg24
I267093
sg25
I628522
sg26
g5
sg27
I837032
sg28
F0.0
ssS'MEYER ROCKFORD G'
p44
(dp45
g3
I232
sg4
I1848227
sg6
g5
sg7
F0.0
sg8
I00
sg9
g5
sg10
S'rockford.meyer@enron.com'
p46
sg12
g5
sg13
g5
sg14
I22
sg15
g5
sg16
I28
sg17
g5
sg18
g5
sg19
g5
sg20
I955873
sg21
I0
sg22
I0
sg23
I462384
sg24
g5
sg25
I1848227
sg26
I493489
sg27
I2804100
sg28
F0.0
ssS'MCMAHON JEFFREY'
p47
(dp48
g3
I2355
sg4
g5
sg6
I137108
sg7
F0.011040339702760084
sg8
I00
sg9
g5
sg10
S'jeffrey.mcmahon@enron.com'
p49
sg12
I694862
sg13
g5
sg14
I2228
sg15
g5
sg16
I48
sg17
I297353
sg18
g5
sg19
I2600000
sg20
I1662855
sg21
I58
sg22
I26
sg23
I558801
sg24
I370448
sg25
I4099771
sg26
I1104054
sg27
I5762626
sg28
F1.2083333333333333
ssS'HORTON STANLEY C'
p50
(dp51
g3
I2350
sg4
I3131860
sg6
g5
sg7
F0.006382978723404255
sg8
I00
sg9
g5
sg10
S'stanley.horton@enron.com'
p52
sg12
g5
sg13
g5
sg14
I1074
sg15
g5
sg16
I1073
sg17
g5
sg18
g5
sg19
g5
sg20
I7256648
sg21
I44
sg22
I15
sg23
I2046079
sg24
g5
sg25
I3131860
sg26
I5210569
sg27
I10388508
sg28
F0.04100652376514446
ssS'PIPER GREGORY F'
p53
(dp54
g3
I1238
sg4
I1130036
sg6
I43057
sg7
F0.03877221324717286
sg8
I00
sg9
I-33333
sg10
S'greg.piper@enron.com'
p55
sg12
g5
sg13
I-409554
sg14
I742
sg15
g5
sg16
I222
sg17
I778
sg18
g5
sg19
I400000
sg20
I880290
sg21
I61
sg22
I48
sg23
I409554
sg24
I197091
sg25
I1737629
sg26
I880290
sg27
I2617919
sg28
F0.2747747747747748
ssS'HUMPHREY GENE E'
p56
(dp57
g3
I128
sg4
I2964506
sg6
I4994
sg7
F0.1328125
sg8
I00
sg9
g5
sg10
S'gene.humphrey@enron.com'
p58
sg12
g5
sg13
g5
sg14
I119
sg15
g5
sg16
I17
sg17
g5
sg18
g5
sg19
g5
sg20
I2282768
sg21
I10
sg22
I17
sg23
g5
sg24
I130724
sg25
I3100224
sg26
I2282768
sg27
I5382992
sg28
F0.5882352941176471
ssS'UMANOFF ADAM S'
p59
(dp60
g3
I111
sg4
g5
sg6
I53122
sg7
F0.0
sg8
I00
sg9
g5
sg10
S'adam.umanoff@enron.com'
p61
sg12
g5
sg13
g5
sg14
I41
sg15
g5
sg16
I18
sg17
g5
sg18
g5
sg19
I788750
sg20
g5
sg21
I12
sg22
I0
sg23
g5
sg24
I288589
sg25
I1130461
sg26
g5
sg27
g37
sg28
F0.6666666666666666
ssS'BLACHMAN JEREMY M'
p62
(dp63
g3
I2475
sg4
g5
sg6
I84208
sg7
F0.0008080808080808081
sg8
I00
sg9
g5
sg10
S'jeremy.blachman@enron.com'
p64
sg12
I831809
sg13
g5
sg14
I2326
sg15
g5
sg16
I14
sg17
I272
sg18
g5
sg19
I850000
sg20
I954354
sg21
I25
sg22
I2
sg23
I189041
sg24
I248546
sg25
I2014835
sg26
I765313
sg27
I2969189
sg28
F1.7857142857142858
ssS'SUNDE MARTIN'
p65
(dp66
g3
I2647
sg4
g5
sg6
g5
sg7
F0.004911220249338874
sg8
I00
sg9
g5
sg10
S'marty.sunde@enron.com'
p67
sg12
I476451
sg13
g5
sg14
I2565
sg15
g5
sg16
I38
sg17
I111122
sg18
g5
sg19
I700000
sg20
I698920
sg21
I37
sg22
I13
sg23
I698920
sg24
I257486
sg25
I1545059
sg26
g5
sg27
I2243979
sg28
F0.9736842105263158
ssS'GIBBS DANA R'
p68
(dp69
g3
I169
sg4
I504610
sg6
g5
sg7
F0.0
sg8
I00
sg9
g5
sg10
S'dana.gibbs@enron.com'
p70
sg12
I461912
sg13
g5
sg14
I23
sg15
g5
sg16
I12
sg17
g5
sg18
g5
sg19
g5
sg20
I2218275
sg21
I0
sg22
I0
sg23
g5
sg24
g5
sg25
I966522
sg26
I2218275
sg27
I3184797
sg28
F0.0
ssS'LOWRY CHARLES P'
p71
(dp72
g3
g5
sg4
g5
sg6
g5
sg7
F0.0
sg8
I00
sg9
g5
sg10
g5
sg12
g5
sg13
I-153686
sg14
g5
sg15
g5
sg16
g5
sg17
g5
sg18
g5
sg19
g5
sg20
I372205
sg21
g5
sg22
g5
sg23
I153686
sg24
g5
sg25
g5
sg26
I372205
sg27
g37
sg28
F0.0
ssS'COLWELL WESLEY'
p73
(dp74
g3
I1758
sg4
I27610
sg6
I16514
sg7
F0.006257110352673493
sg8
I01
sg9
I-144062
sg10
S'wes.colwell@enron.com'
p75
sg12
g5
sg13
g5
sg14
I1132
sg15
g5
sg16
I40
sg17
I101740
sg18
g5
sg19
I1200000
sg20
I698242
sg21
I240
sg22
I11
sg23
I698242
sg24
I288542
sg25
I1490344
sg26
g5
sg27
I2188586
sg28
F6.0
ssS'MULLER MARK S'
p76
(dp77
g3
I136
sg4
I842924
sg6
g5
sg7
F0.0
sg8
I00
sg9
I-719000
sg10
S's..muller@enron.com'
p78
sg12
I1725545
sg13
g5
sg14
I114
sg15
g5
sg16
I16
sg17
I947
sg18
g5
sg19
I1100000
sg20
I1416848
sg21
I12
sg22
I0
sg23
I360528
sg24
I251654
sg25
I3202070
sg26
I1056320
sg27
I4618918
sg28
F0.75
ssS'JACKSON CHARLENE R'
p79
(dp80
g3
I258
sg4
g5
sg6
I10181
sg7
F0.07364341085271318
sg8
I00
sg9
g5
sg10
S'charlene.jackson@enron.com'
p81
sg12
g5
sg13
g5
sg14
I117
sg15
g5
sg16
I56
sg17
I2435
sg18
g5
sg19
I250000
sg20
I725735
sg21
I25
sg22
I19
sg23
I540672
sg24
I288558
sg25
I551174
sg26
I185063
sg27
I1276909
sg28
F0.44642857142857145
ssS'WESTFAHL RICHARD K'
p82
(dp83
g3
g5
sg4
g5
sg6
I51870
sg7
F0.0
sg8
I00
sg9
I-10800
sg10
S'dick.westfahl@enron.com'
p84
sg12
I256191
sg13
g5
sg14
g5
sg15
g5
sg16
g5
sg17
I401130
sg18
g5
sg19
g5
sg20
I384930
sg21
g5
sg22
g5
sg23
I384930
sg24
I63744
sg25
I762135
sg26
g5
sg27
I1147065
sg28
F0.0
ssS'WALTERS GARETH W'
p85
(dp86
g3
g5
sg4
I53625
sg6
I33785
sg7
F0.0
sg8
I00
sg9
g5
sg10
g5
sg12
g5
sg13
g5
sg14
g5
sg15
g5
sg16
g5
sg17
g5
sg18
g5
sg19
g5
sg20
I1030329
sg21
g5
sg22
g5
sg23
g5
sg24
g5
sg25
I87410
sg26
I1030329
sg27
I1117739
sg28
F0.0
ssS'WALLS JR ROBERT H'
p87
(dp88
g3
I671
sg4
g5
sg6
I50936
sg7
F0.0
sg8
I00
sg9
g5
sg10
S'rob.walls@enron.com'
p89
sg12
I540751
sg13
g5
sg14
I215
sg15
g5
sg16
I146
sg17
I2
sg18
g5
sg19
I850000
sg20
I5898997
sg21
I17
sg22
I0
sg23
I1552453
sg24
I357091
sg25
I1798780
sg26
I4346544
sg27
I7697777
sg28
F0.11643835616438356
ssS'KITCHEN LOUISE'
p90
(dp91
g3
I8305
sg4
g5
sg6
I5774
sg7
F0.023359422034918725
sg8
I00
sg9
g5
sg10
S'louise.kitchen@enron.com'
p92
sg12
g5
sg13
g5
sg14
I3669
sg15
g5
sg16
I1728
sg17
I93925
sg18
g5
sg19
I3100000
sg20
I547143
sg21
I251
sg22
I194
sg23
I466101
sg24
I271442
sg25
I3471141
sg26
I81042
sg27
I4018284
sg28
F0.14525462962962962
ssS'CHAN RONNIE'
p93
(dp94
g3
g5
sg4
g5
sg6
g5
sg7
F0.0
sg8
I00
sg9
I-98784
sg10
g5
sg12
g5
sg13
I-32460
sg14
g5
sg15
g5
sg16
g5
sg17
g5
sg18
I98784
sg19
g5
sg20
g5
sg21
g5
sg22
g5
sg23
I32460
sg24
g5
sg25
g5
sg26
g5
sg27
g37
sg28
F0.0
ssS'BELFER ROBERT'
p95
(dp96
g3
g5
sg4
I-102500
sg6
g5
sg7
F0.0
sg8
I00
sg9
g5
sg10
g5
sg12
g5
sg13
I44093
sg14
g5
sg15
g5
sg16
g5
sg17
g5
sg18
I3285
sg19
g5
sg20
I-44093
sg21
g5
sg22
g5
sg23
g5
sg24
g5
sg25
I102500
sg26
I3285
sg27
I58407
sg28
F0.0
ssS'SHANKMAN JEFFREY A'
p97
(dp98
g3
I3221
sg4
g5
sg6
I178979
sg7
F0.025768394908413535
sg8
I00
sg9
g5
sg10
S'jeffrey.shankman@enron.com'
p99
sg12
I554422
sg13
g5
sg14
I1730
sg15
g5
sg16
I2681
sg17
I1191
sg18
g5
sg19
I2000000
sg20
I2072035
sg21
I94
sg22
I83
sg23
I630137
sg24
I304110
sg25
I3038702
sg26
I1441898
sg27
I5110737
sg28
F0.0350615441999254
ssS'WODRASKA JOHN'
p100
(dp101
g3
g5
sg4
g5
sg6
g5
sg7
F0.0
sg8
I00
sg9
g5
sg10
S'john.wodraska@enron.com'
p102
sg12
g5
sg13
g5
sg14
g5
sg15
g5
sg16
g5
sg17
I189583
sg18
g5
sg19
g5
sg20
g5
sg21
g5
sg22
g5
sg23
g5
sg24
g5
sg25
I189583
sg26
g5
sg27
g37
sg28
F0.0
ssS'BERGSIEKER RICHARD P'
p103
(dp104
g3
I383
sg4
g5
sg6
I59175
sg7
F0.0
sg8
I00
sg9
I-485813
sg10
S'rick.bergsieker@enron.com'
p105
sg12
I180250
sg13
g5
sg14
I233
sg15
g5
sg16
I59
sg17
I427316
sg18
g5
sg19
I250000
sg20
I659249
sg21
I4
sg22
I0
sg23
I659249
sg24
I187922
sg25
I618850
sg26
g5
sg27
I1278099
sg28
F0.06779661016949153
ssS'URQUHART JOHN A'
p106
(dp107
g3
g5
sg4
g5
sg6
I228656
sg7
F0.0
sg8
I00
sg9
I-36666
sg10
g5
sg12
g5
sg13
g5
sg14
g5
sg15
g5
sg16
g5
sg17
g5
sg18
I36666
sg19
g5
sg20
g5
sg21
g5
sg22
g5
sg23
g5
sg24
g5
sg25
I228656
sg26
g5
sg27
g37
sg28
F0.0
ssS'BIBI PHILIPPE A'
p108
(dp109
g3
I1607
sg4
g5
sg6
I38559
sg7
F0.004978220286247666
sg8
I00
sg9
g5
sg10
S'philippe.bibi@enron.com'
p110
sg12
I369721
sg13
g5
sg14
I1336
sg15
g5
sg16
I40
sg17
I425688
sg18
g5
sg19
I1000000
sg20
I1843816
sg21
I23
sg22
I8
sg23
I378082
sg24
I213625
sg25
I2047593
sg26
I1465734
sg27
I3891409
sg28
F0.575
ssS'RIEKER PAULA H'
p111
(dp112
g3
I1328
sg4
I214678
sg6
I33271
sg7
F0.03614457831325301
sg8
I01
sg9
I-100000
sg10
S'paula.rieker@enron.com'
p113
sg12
g5
sg13
g5
sg14
I1258
sg15
g5
sg16
I82
sg17
I1950
sg18
g5
sg19
I700000
sg20
I1918887
sg21
I35
sg22
I48
sg23
I283649
sg24
I249201
sg25
I1099100
sg26
I1635238
sg27
I3017987
sg28
F0.4268292682926829
ssS'WHALEY DAVID A'
p114
(dp115
g3
g5
sg4
g5
sg6
g5
sg7
F0.0
sg8
I00
sg9
g5
sg10
g5
sg12
g5
sg13
g5
sg14
g5
sg15
g5
sg16
g5
sg17
g5
sg18
g5
sg19
g5
sg20
I98718
sg21
g5
sg22
g5
sg23
g5
sg24
g5
sg25
g5
sg26
I98718
sg27
g37
sg28
F0.0
ssS'BECK SALLY W'
p116
(dp117
g3
I7315
sg4
g5
sg6
I37172
sg7
F0.052768284347231714
sg8
I00
sg9
g5
sg10
S'sally.beck@enron.com'
p118
sg12
g5
sg13
g5
sg14
I2639
sg15
g5
sg16
I4343
sg17
I566
sg18
g5
sg19
I700000
sg20
I126027
sg21
I144
sg22
I386
sg23
I126027
sg24
I231330
sg25
I969068
sg26
g5
sg27
I1095095
sg28
F0.033156804052498275
ssS'HAUG DAVID L'
p119
(dp120
g3
I573
sg4
g5
sg6
I475
sg7
F0.012216404886561954
sg8
I00
sg9
g5
sg10
S'david.haug@enron.com'
p121
sg12
g5
sg13
g5
sg14
I471
sg15
g5
sg16
I19
sg17
g5
sg18
g5
sg19
g5
sg20
I2217299
sg21
I4
sg22
I7
sg23
I2217299
sg24
g5
sg25
I475
sg26
g5
sg27
I2217774
sg28
F0.21052631578947367
ssS'ECHOLS JOHN B'
p122
(dp123
g3
g5
sg4
g5
sg6
I21530
sg7
F0.0
sg8
I00
sg9
g5
sg10
S'john.echols@enron.com'
p124
sg12
I2234774
sg13
g5
sg14
g5
sg15
g5
sg16
g5
sg17
I53775
sg18
g5
sg19
I200000
sg20
I1008941
sg21
g5
sg22
g5
sg23
I407503
sg24
I182245
sg25
I2692324
sg26
I601438
sg27
I3701265
sg28
F0.0
ssS'MENDELSOHN JOHN'
p125
(dp126
g3
g5
sg4
g5
sg6
I148
sg7
F0.0
sg8
I00
sg9
I-103750
sg10
g5
sg12
g5
sg13
g5
sg14
g5
sg15
g5
sg16
g5
sg17
g5
sg18
I103750
sg19
g5
sg20
g5
sg21
g5
sg22
g5
sg23
g5
sg24
g5
sg25
I148
sg26
g5
sg27
g37
sg28
F0.0
ssS'HICKERSON GARY J'
p127
(dp128
g3
I1320
sg4
g5
sg6
I98849
sg7
F0.0007575757575757576
sg8
I00
sg9
g5
sg10
S'gary.hickerson@enron.com'
p129
sg12
I69223
sg13
g5
sg14
I900
sg15
g5
sg16
I27
sg17
I1936
sg18
g5
sg19
I1700000
sg20
I441096
sg21
I40
sg22
I1
sg23
I441096
sg24
I211788
sg25
I2081796
sg26
g5
sg27
I2522892
sg28
F1.4814814814814814
ssS'CLINE KENNETH W'
p130
(dp131
g3
g5
sg4
g5
sg6
g5
sg7
F0.0
sg8
I00
sg9
g5
sg10
g5
sg12
g5
sg13
I-472568
sg14
g5
sg15
g5
sg16
g5
sg17
g5
sg18
g5
sg19
g5
sg20
I189518
sg21
g5
sg22
g5
sg23
I662086
sg24
g5
sg25
g5
sg26
g5
sg27
g37
sg28
F0.0
ssS'LEWIS RICHARD'
p132
(dp133
g3
I952
sg4
g5
sg6
g5
sg7
F0.0
sg8
I00
sg9
g5
sg10
S'richard.lewis@enron.com'
p134
sg12
g5
sg13
g5
sg14
I739
sg15
g5
sg16
I26
sg17
g5
sg18
g5
sg19
g5
sg20
I850477
sg21
I10
sg22
I0
sg23
g5
sg24
g5
sg25
g5
sg26
I850477
sg27
g37
sg28
F0.38461538461538464
ssS'HAYES ROBERT E'
p135
(dp136
g3
I504
sg4
I7961
sg6
g5
sg7
F0.0
sg8
I00
sg9
g5
sg10
S'robert.hayes@enron.com'
p137
sg12
g5
sg13
g5
sg14
I50
sg15
g5
sg16
I12
sg17
g5
sg18
g5
sg19
g5
sg20
I151418
sg21
I16
sg22
I0
sg23
I151418
sg24
g5
sg25
I7961
sg26
g5
sg27
I159379
sg28
F1.3333333333333333
ssS'MCCARTY DANNY J'
p138
(dp139
g3
I1433
sg4
g5
sg6
g5
sg7
F0.0013956734124214933
sg8
I00
sg9
g5
sg10
S'danny.mccarty@enron.com'
p140
sg12
g5
sg13
g5
sg14
I508
sg15
g5
sg16
I215
sg17
g5
sg18
g5
sg19
g5
sg20
I758931
sg21
I25
sg22
I2
sg23
I94556
sg24
g5
sg25
g5
sg26
I664375
sg27
g37
sg28
F0.11627906976744186
ssS'KOPPER MICHAEL J'
p141
(dp142
g3
g5
sg4
g5
sg6
I118134
sg7
F0.0
sg8
I01
sg9
g5
sg10
S'michael.kopper@enron.com'
p143
sg12
I602671
sg13
g5
sg14
g5
sg15
g5
sg16
g5
sg17
I907502
sg18
g5
sg19
I800000
sg20
I985032
sg21
g5
sg22
g5
sg23
I985032
sg24
I224305
sg25
I2652612
sg26
g5
sg27
I3637644
sg28
F0.0
ssS'LEFF DANIEL P'
p144
(dp145
g3
I2822
sg4
g5
sg6
g5
sg7
F0.004961020552799433
sg8
I00
sg9
g5
sg10
S'dan.leff@enron.com'
p146
sg12
I1387399
sg13
g5
sg14
I2672
sg15
g5
sg16
I63
sg17
I3083
sg18
g5
sg19
I1000000
sg20
I360528
sg21
I67
sg22
I14
sg23
I360528
sg24
I273746
sg25
I2664228
sg26
g5
sg27
I3024756
sg28
F1.0634920634920635
ssS'LAVORATO JOHN J'
p147
(dp148
g3
I7259
sg4
g5
sg6
I49537
sg7
F0.05661936905909905
sg8
I00
sg9
g5
sg10
S'john.lavorato@enron.com'
p149
sg12
I2035380
sg13
g5
sg14
I3962
sg15
g5
sg16
I2585
sg17
I1552
sg18
g5
sg19
I8000000
sg20
I5167144
sg21
I528
sg22
I411
sg23
I1008149
sg24
I339288
sg25
I10425757
sg26
I4158995
sg27
I15592901
sg28
F0.20425531914893616
ssS'BERBERIAN DAVID'
p150
(dp151
g3
g5
sg4
g5
sg6
I11892
sg7
F0.0
sg8
I00
sg9
g5
sg10
S'david.berberian@enron.com'
p152
sg12
g5
sg13
g5
sg14
g5
sg15
g5
sg16
g5
sg17
g5
sg18
g5
sg19
g5
sg20
I2493616
sg21
g5
sg22
g5
sg23
I869220
sg24
I216582
sg25
I228474
sg26
I1624396
sg27
I2722090
sg28
F0.0
ssS'DETMERING TIMOTHY J'
p153
(dp154
g3
g5
sg4
I875307
sg6
I52255
sg7
F0.0
sg8
I00
sg9
I-775241
sg10
S'timothy.detmering@enron.com'
p155
sg12
I415657
sg13
I-315068
sg14
g5
sg15
g5
sg16
g5
sg17
I1105
sg18
g5
sg19
I425000
sg20
I2027865
sg21
g5
sg22
g5
sg23
I315068
sg24
I210500
sg25
I1204583
sg26
I2027865
sg27
I3232448
sg28
F0.0
ssS'WAKEHAM JOHN'
p156
(dp157
g3
g5
sg4
g5
sg6
I103773
sg7
F0.0
sg8
I00
sg9
g5
sg10
g5
sg12
g5
sg13
g5
sg14
g5
sg15
g5
sg16
g5
sg17
g5
sg18
I109298
sg19
g5
sg20
g5
sg21
g5
sg22
g5
sg23
g5
sg24
g5
sg25
I213071
sg26
g5
sg27
g37
sg28
F0.0
ssS'POWERS WILLIAM'
p158
(dp159
g3
I653
sg4
g5
sg6
g5
sg7
F0.0
sg8
I00
sg9
I-17500
sg10
S'ken.powers@enron.com'
p160
sg12
g5
sg13
g5
sg14
I12
sg15
g5
sg16
I26
sg17
g5
sg18
I17500
sg19
g5
sg20
g5
sg21
I0
sg22
I0
sg23
g5
sg24
g5
sg25
g5
sg26
g5
sg27
g37
sg28
F0.0
ssS'GOLD JOSEPH'
p161
(dp162
g3
g5
sg4
g5
sg6
g5
sg7
F0.0
sg8
I00
sg9
g5
sg10
S'joe.gold@enron.com'
p163
sg12
I304805
sg13
g5
sg14
g5
sg15
g5
sg16
g5
sg17
I819288
sg18
g5
sg19
I750000
sg20
I877611
sg21
g5
sg22
g5
sg23
I441096
sg24
I272880
sg25
I2146973
sg26
I436515
sg27
I3024584
sg28
F0.0
ssS'BANNANTINE JAMES M'
p164
(dp165
g3
I566
sg4
g5
sg6
I56301
sg7
F0.0
sg8
I00
sg9
I-5104
sg10
S'james.bannantine@enron.com'
p166
sg12
g5
sg13
I-560222
sg14
I465
sg15
g5
sg16
I29
sg17
I864523
sg18
g5
sg19
g5
sg20
I5243487
sg21
I39
sg22
I0
sg23
I1757552
sg24
I477
sg25
I916197
sg26
I4046157
sg27
I6159684
sg28
F1.3448275862068966
ssS'DUNCAN JOHN H'
p167
(dp168
g3
g5
sg4
g5
sg6
g5
sg7
F0.0
sg8
I00
sg9
I-25000
sg10
g5
sg12
g5
sg13
g5
sg14
g5
sg15
g5
sg16
g5
sg17
g5
sg18
I102492
sg19
g5
sg20
I371750
sg21
g5
sg22
g5
sg23
g5
sg24
g5
sg25
I77492
sg26
I371750
sg27
I449242
sg28
F0.0
ssS'SHAPIRO RICHARD S'
p169
(dp170
g3
I15149
sg4
g5
sg6
I137767
sg7
F0.004290712258234867
sg8
I00
sg9
g5
sg10
S'richard.shapiro@enron.com'
p171
sg12
g5
sg13
g5
sg14
I4527
sg15
g5
sg16
I1215
sg17
I705
sg18
g5
sg19
I650000
sg20
I987001
sg21
I74
sg22
I65
sg23
I379164
sg24
I269076
sg25
I1057548
sg26
I607837
sg27
I2044549
sg28
F0.060905349794238686
ssS'SHERRIFF JOHN R'
p172
(dp173
g3
I3187
sg4
g5
sg6
g5
sg7
F0.0072168183244430495
sg8
I00
sg9
g5
sg10
S'john.sherriff@enron.com'
p174
sg12
I554422
sg13
g5
sg14
I2103
sg15
g5
sg16
I92
sg17
I1852186
sg18
g5
sg19
I1500000
sg20
I3128982
sg21
I28
sg22
I23
sg23
I1293424
sg24
I428780
sg25
I4335388
sg26
I1835558
sg27
I7464370
sg28
F0.30434782608695654
ssS'SHELBY REX'
p175
(dp176
g3
I225
sg4
g5
sg6
I22884
sg7
F0.06222222222222222
sg8
I01
sg9
I-4167
sg10
S'rex.shelby@enron.com'
p177
sg12
g5
sg13
g5
sg14
I91
sg15
g5
sg16
I39
sg17
I1573324
sg18
g5
sg19
I200000
sg20
I2493616
sg21
I13
sg22
I14
sg23
I869220
sg24
I211844
sg25
I2003885
sg26
I1624396
sg27
I4497501
sg28
F0.3333333333333333
ssS'LEMAISTRE CHARLES'
p178
(dp179
g3
g5
sg4
g5
sg6
g5
sg7
F0.0
sg8
I00
sg9
I-25000
sg10
g5
sg12
g5
sg13
g5
sg14
g5
sg15
g5
sg16
g5
sg17
g5
sg18
I112492
sg19
g5
sg20
I412878
sg21
g5
sg22
g5
sg23
g5
sg24
g5
sg25
I87492
sg26
I412878
sg27
I500370
sg28
F0.0
ssS'DEFFNER JOSEPH M'
p180
(dp181
g3
I714
sg4
g5
sg6
I41626
sg7
F0.0056022408963585435
sg8
I00
sg9
g5
sg10
S'joseph.deffner@enron.com'
p182
sg12
I335349
sg13
g5
sg14
I552
sg15
g5
sg16
I74
sg17
I25553
sg18
g5
sg19
I600000
sg20
I159211
sg21
I115
sg22
I4
sg23
I141833
sg24
I206121
sg25
I1208649
sg26
I17378
sg27
I1367860
sg28
F1.554054054054054
ssS'KISHKILL JOSEPH G'
p183
(dp184
g3
g5
sg4
g5
sg6
I116335
sg7
F0.0
sg8
I00
sg9
I-51042
sg10
S'joe.kishkill@enron.com'
p185
sg12
g5
sg13
g5
sg14
g5
sg15
g5
sg16
g5
sg17
I465357
sg18
g5
sg19
g5
sg20
I1034346
sg21
g5
sg22
g5
sg23
I1034346
sg24
I174246
sg25
I704896
sg26
g5
sg27
I1739242
sg28
F0.0
ssS'WHALLEY LAWRENCE G'
p186
(dp187
g3
I6019
sg4
g5
sg6
I57838
sg7
F0.003987373317826882
sg8
I00
sg9
g5
sg10
S'greg.whalley@enron.com'
p188
sg12
I808346
sg13
g5
sg14
I3920
sg15
g5
sg16
I556
sg17
I301026
sg18
g5
sg19
I3000000
sg20
I6079137
sg21
I186
sg22
I24
sg23
I2796177
sg24
I510364
sg25
I4677574
sg26
I3282960
sg27
I10756711
sg28
F0.3345323741007194
ssS'MCCONNELL MICHAEL S'
p189
(dp190
g3
I3329
sg4
g5
sg6
I81364
sg7
F0.058275758486031844
sg8
I00
sg9
g5
sg10
S'mike.mcconnell@enron.com'
p191
sg12
I554422
sg13
g5
sg14
I2189
sg15
g5
sg16
I2742
sg17
I540
sg18
g5
sg19
I1100000
sg20
I3101279
sg21
I92
sg22
I194
sg23
I1478269
sg24
I365038
sg25
I2101364
sg26
I1623010
sg27
I5202643
sg28
F0.03355215171407731
ssS'PIRO JIM'
p192
(dp193
g3
I58
sg4
g5
sg6
g5
sg7
F0.017241379310344827
sg8
I00
sg9
g5
sg10
S'jim.piro@enron.com'
p194
sg12
g5
sg13
g5
sg14
I3
sg15
g5
sg16
I16
sg17
g5
sg18
g5
sg19
g5
sg20
I47304
sg21
I0
sg22
I1
sg23
I47304
sg24
g5
sg25
g5
sg26
g5
sg27
g37
sg28
F0.0
ssS'DELAINEY DAVID W'
p195
(dp196
g3
I3093
sg4
g5
sg6
I86174
sg7
F0.19689621726479145
sg8
I01
sg9
g5
sg10
S'david.delainey@enron.com'
p197
sg12
I1294981
sg13
g5
sg14
I2097
sg15
g5
sg16
I3069
sg17
I1661
sg18
g5
sg19
I3000000
sg20
I3614261
sg21
I66
sg22
I609
sg23
I1323148
sg24
I365163
sg25
I4747979
sg26
I2291113
sg27
I8362240
sg28
F0.021505376344086023
ssS'SULLIVAN-SHAKLOVITZ COLLEEN'
p198
(dp199
g3
g5
sg4
I181993
sg6
g5
sg7
F0.0
sg8
I00
sg9
g5
sg10
g5
sg12
I554422
sg13
g5
sg14
g5
sg15
g5
sg16
g5
sg17
I162
sg18
g5
sg19
I100000
sg20
I1362375
sg21
g5
sg22
g5
sg23
g5
sg24
I162779
sg25
I999356
sg26
I1362375
sg27
I2361731
sg28
F0.0
ssS'WROBEL BRUCE'
p200
(dp201
g3
g5
sg4
g5
sg6
g5
sg7
F0.0
sg8
I00
sg9
g5
sg10
g5
sg12
g5
sg13
g5
sg14
g5
sg15
g5
sg16
g5
sg17
g5
sg18
g5
sg19
g5
sg20
I139130
sg21
g5
sg22
g5
sg23
g5
sg24
g5
sg25
g5
sg26
I139130
sg27
g37
sg28
F0.0
ssS'LINDHOLM TOD A'
p202
(dp203
g3
g5
sg4
I204075
sg6
I57727
sg7
F0.0
sg8
I00
sg9
g5
sg10
S'tod.lindholm@enron.com'
p204
sg12
I175000
sg13
g5
sg14
g5
sg15
g5
sg16
g5
sg17
I2630
sg18
g5
sg19
I200000
sg20
I3064208
sg21
g5
sg22
g5
sg23
I514847
sg24
I236457
sg25
I875889
sg26
I2549361
sg27
I3940097
sg28
F0.0
ssS'MEYER JEROME J'
p205
(dp206
g3
g5
sg4
g5
sg6
I2151
sg7
F0.0
sg8
I00
sg9
I-38346
sg10
g5
sg12
g5
sg13
g5
sg14
g5
sg15
g5
sg16
g5
sg17
g5
sg18
I38346
sg19
g5
sg20
g5
sg21
g5
sg22
g5
sg23
g5
sg24
g5
sg25
I2151
sg26
g5
sg27
g37
sg28
F0.0
ssS'LAY KENNETH L'
p207
(dp208
g3
I4273
sg4
I202911
sg6
I99832
sg7
F0.003744441844137608
sg8
I01
sg9
I-300000
sg10
S'kenneth.lay@enron.com'
p209
sg12
I3600000
sg13
g5
sg14
I2411
sg15
I81525000
sg16
I36
sg17
I10359729
sg18
g5
sg19
I7000000
sg20
I49110078
sg21
I123
sg22
I16
sg23
I14761694
sg24
I1072321
sg25
I103559793
sg26
I34348384
sg27
I152669871
sg28
F3.4166666666666665
ssS'BUTTS ROBERT H'
p210
(dp211
g3
g5
sg4
g5
sg6
I9410
sg7
F0.0
sg8
I00
sg9
I-75000
sg10
S'bob.butts@enron.com'
p212
sg12
I175000
sg13
g5
sg14
g5
sg15
g5
sg16
g5
sg17
I150656
sg18
g5
sg19
I750000
sg20
I417619
sg21
g5
sg22
g5
sg23
I417619
sg24
I261516
sg25
I1271582
sg26
g5
sg27
I1689201
sg28
F0.0
ssS'OLSON CINDY K'
p213
(dp214
g3
I1184
sg4
I77716
sg6
I63791
sg7
F0.01266891891891892
sg8
I00
sg9
g5
sg10
S'cindy.olson@enron.com'
p215
sg12
I100000
sg13
g5
sg14
I856
sg15
g5
sg16
I52
sg17
I972
sg18
g5
sg19
I750000
sg20
I2606763
sg21
I20
sg22
I15
sg23
I969729
sg24
I329078
sg25
I1321557
sg26
I1637034
sg27
I3928320
sg28
F0.38461538461538464
ssS'MCDONALD REBECCA'
p216
(dp217
g3
I894
sg4
g5
sg6
g5
sg7
F0.0011185682326621924
sg8
I00
sg9
g5
sg10
S'rebecca.mcdonald@enron.com'
p218
sg12
g5
sg13
g5
sg14
I720
sg15
g5
sg16
I13
sg17
g5
sg18
g5
sg19
g5
sg20
I1691366
sg21
I54
sg22
I1
sg23
I934065
sg24
g5
sg25
g5
sg26
I757301
sg27
g37
sg28
F4.153846153846154
ssS'CUMBERLAND MICHAEL S'
p219
(dp220
g3
g5
sg4
g5
sg6
I22344
sg7
F0.0
sg8
I00
sg9
g5
sg10
g5
sg12
I275000
sg13
g5
sg14
g5
sg15
g5
sg16
g5
sg17
I713
sg18
g5
sg19
I325000
sg20
I207940
sg21
g5
sg22
g5
sg23
I207940
sg24
I184899
sg25
I807956
sg26
g5
sg27
I1015896
sg28
F0.0
ssS'GAHN ROBERT S'
p221
(dp222
g3
g5
sg4
I73122
sg6
I50080
sg7
F0.0
sg8
I00
sg9
I-1042
sg10
g5
sg12
g5
sg13
g5
sg14
g5
sg15
g5
sg16
g5
sg17
I76547
sg18
g5
sg19
I509870
sg20
I318607
sg21
g5
sg22
g5
sg23
I235370
sg24
I192008
sg25
I900585
sg26
I83237
sg27
I1219192
sg28
F0.0
ssS'MCCLELLAN GEORGE'
p223
(dp224
g3
I1744
sg4
g5
sg6
I228763
sg7
F0.0
sg8
I00
sg9
I-125000
sg10
S'george.mcclellan@enron.com'
p225
sg12
g5
sg13
g5
sg14
I1469
sg15
g5
sg16
I49
sg17
I51587
sg18
g5
sg19
I900000
sg20
I947861
sg21
I52
sg22
I0
sg23
I441096
sg24
I263413
sg25
I1318763
sg26
I506765
sg27
I2266624
sg28
F1.0612244897959184
ssS'HERMANN ROBERT J'
p226
(dp227
g3
g5
sg4
g5
sg6
I48357
sg7
F0.0
sg8
I00
sg9
I-280000
sg10
S'robert.hermann@enron.com'
p228
sg12
I150000
sg13
g5
sg14
g5
sg15
g5
sg16
g5
sg17
I416441
sg18
g5
sg19
I700000
sg20
I668132
sg21
g5
sg22
g5
sg23
I480632
sg24
I262663
sg25
I1297461
sg26
I187500
sg27
I1965593
sg28
F0.0
ssS'SCRIMSHAW MATTHEW'
p229
(dp230
g3
g5
sg4
g5
sg6
g5
sg7
F0.0
sg8
I00
sg9
g5
sg10
S'matthew.scrimshaw@enron.com'
p231
sg12
g5
sg13
g5
sg14
g5
sg15
g5
sg16
g5
sg17
g5
sg18
g5
sg19
g5
sg20
I759557
sg21
g5
sg22
g5
sg23
g5
sg24
g5
sg25
g5
sg26
I759557
sg27
g37
sg28
F0.0
ssS'GATHMANN WILLIAM D'
p232
(dp233
g3
g5
sg4
g5
sg6
g5
sg7
F0.0
sg8
I00
sg9
g5
sg10
g5
sg12
g5
sg13
I-72419
sg14
g5
sg15
g5
sg16
g5
sg17
g5
sg18
g5
sg19
g5
sg20
I1945360
sg21
g5
sg22
g5
sg23
I264013
sg24
g5
sg25
g5
sg26
I1753766
sg27
g37
sg28
F0.0
ssS'HAEDICKE MARK E'
p234
(dp235
g3
I4009
sg4
I2157527
sg6
I76169
sg7
F0.015215764529807932
sg8
I00
sg9
I-934484
sg10
S'mark.haedicke@enron.com'
p236
sg12
I983346
sg13
I-329825
sg14
I1847
sg15
g5
sg16
I1941
sg17
I52382
sg18
g5
sg19
I1150000
sg20
I803094
sg21
I180
sg22
I61
sg23
I524169
sg24
I374125
sg25
I3859065
sg26
I608750
sg27
I4662159
sg28
F0.09273570324574962
ssS'BOWEN JR RAYMOND M'
p237
(dp238
g3
I1858
sg4
g5
sg6
I65907
sg7
F0.008073196986006458
sg8
I01
sg9
I-833
sg10
S'raymond.bowen@enron.com'
p239
sg12
I974293
sg13
g5
sg14
I1593
sg15
g5
sg16
I27
sg17
I1621
sg18
g5
sg19
I1350000
sg20
I252055
sg21
I140
sg22
I15
sg23
I252055
sg24
I278601
sg25
I2669589
sg26
g5
sg27
I2921644
sg28
F5.185185185185185
ssS'GILLIS JOHN'
p240
(dp241
g3
g5
sg4
g5
sg6
g5
sg7
F0.0
sg8
I00
sg9
g5
sg10
g5
sg12
g5
sg13
g5
sg14
g5
sg15
g5
sg16
g5
sg17
g5
sg18
g5
sg19
g5
sg20
I85641
sg21
g5
sg22
g5
sg23
I75838
sg24
g5
sg25
g5
sg26
I9803
sg27
g37
sg28
F0.0
ssS'FITZGERALD JAY L'
p242
(dp243
g3
I936
sg4
g5
sg6
I23870
sg7
F0.008547008547008548
sg8
I00
sg9
g5
sg10
S'jay.fitzgerald@enron.com'
p244
sg12
I556416
sg13
g5
sg14
I723
sg15
g5
sg16
I16
sg17
I285414
sg18
g5
sg19
I350000
sg20
I1621236
sg21
I1
sg22
I8
sg23
I956775
sg24
I199157
sg25
I1414857
sg26
I664461
sg27
I3036093
sg28
F0.0625
ssS'MORAN MICHAEL P'
p245
(dp246
g3
I672
sg4
g5
sg6
g5
sg7
F0.0
sg8
I00
sg9
g5
sg10
S'michael.moran@enron.com'
p247
sg12
g5
sg13
g5
sg14
I127
sg15
g5
sg16
I19
sg17
g5
sg18
g5
sg19
g5
sg20
I221141
sg21
I0
sg22
I0
sg23
I161602
sg24
g5
sg25
g5
sg26
I59539
sg27
g37
sg28
F0.0
ssS'REDMOND BRIAN L'
p248
(dp249
g3
I1671
sg4
g5
sg6
I14689
sg7
F0.029323758228605626
sg8
I00
sg9
g5
sg10
S'brian.redmond@enron.com'
p250
sg12
g5
sg13
g5
sg14
I1063
sg15
g5
sg16
I221
sg17
g5
sg18
g5
sg19
g5
sg20
I7890324
sg21
I204
sg22
I49
sg23
I381285
sg24
I96840
sg25
I111529
sg26
I7509039
sg27
I8001853
sg28
F0.9230769230769231
ssS'BAZELIDES PHILIP J'
p251
(dp252
g3
g5
sg4
I684694
sg6
g5
sg7
F0.0
sg8
I00
sg9
g5
sg10
g5
sg12
I93750
sg13
g5
sg14
g5
sg15
g5
sg16
g5
sg17
I874
sg18
g5
sg19
g5
sg20
I1599641
sg21
g5
sg22
g5
sg23
g5
sg24
I80818
sg25
I860136
sg26
I1599641
sg27
I2459777
sg28
F0.0
ssS'BELDEN TIMOTHY N'
p253
(dp254
g3
I7991
sg4
I2144013
sg6
I17355
sg7
F0.013515204605180828
sg8
I01
sg9
I-2334434
sg10
S'tim.belden@enron.com'
p255
sg12
g5
sg13
g5
sg14
I5521
sg15
g5
sg16
I484
sg17
I210698
sg18
g5
sg19
I5249999
sg20
I1110705
sg21
I228
sg22
I108
sg23
I157569
sg24
I213999
sg25
I5501630
sg26
I953136
sg27
I6612335
sg28
F0.47107438016528924
ssS'DURAN WILLIAM D'
p256
(dp257
g3
I904
sg4
g5
sg6
I25785
sg7
F0.00331858407079646
sg8
I00
sg9
g5
sg10
S'w.duran@enron.com'
p258
sg12
I1105218
sg13
g5
sg14
I599
sg15
g5
sg16
I12
sg17
I1568
sg18
g5
sg19
I750000
sg20
I1640910
sg21
I106
sg22
I3
sg23
I189041
sg24
I210692
sg25
I2093263
sg26
I1451869
sg27
I3734173
sg28
F8.833333333333334
ssS'THORN TERENCE H'
p259
(dp260
g3
I266
sg4
I16586
sg6
I46145
sg7
F0.0
sg8
I00
sg9
g5
sg10
S'terence.thorn@enron.com'
p261
sg12
I200000
sg13
g5
sg14
I73
sg15
g5
sg16
I41
sg17
I426629
sg18
g5
sg19
g5
sg20
I4817796
sg21
I0
sg22
I0
sg23
I365320
sg24
I222093
sg25
I911453
sg26
I4452476
sg27
I5729249
sg28
F0.0
ssS'FASTOW ANDREW S'
p262
(dp263
g3
g5
sg4
g5
sg6
I55921
sg7
F0.0
sg8
I01
sg9
I-1386055
sg10
S'andrew.fastow@enron.com'
p264
sg12
I1736055
sg13
g5
sg14
g5
sg15
g5
sg16
g5
sg17
I277464
sg18
g5
sg19
I1300000
sg20
I1794412
sg21
g5
sg22
g5
sg23
I1794412
sg24
I440698
sg25
I2424083
sg26
g5
sg27
I4218495
sg28
F0.0
ssS'FOY JOE'
p265
(dp266
g3
I57
sg4
I181755
sg6
g5
sg7
F0.0
sg8
I00
sg9
g5
sg10
S'tracy.foy@enron.com'
p267
sg12
g5
sg13
g5
sg14
I2
sg15
g5
sg16
I13
sg17
g5
sg18
g5
sg19
g5
sg20
I343434
sg21
I0
sg22
I0
sg23
g5
sg24
g5
sg25
I181755
sg26
I343434
sg27
I525189
sg28
F0.0
ssS'CALGER CHRISTOPHER F'
p268
(dp269
g3
I2598
sg4
g5
sg6
I35818
sg7
F0.00962278675904542
sg8
I01
sg9
I-262500
sg10
S'christopher.calger@enron.com'
p270
sg12
I375304
sg13
g5
sg14
I2188
sg15
g5
sg16
I144
sg17
I486
sg18
g5
sg19
I1250000
sg20
I126027
sg21
I199
sg22
I25
sg23
I126027
sg24
I240189
sg25
I1639297
sg26
g5
sg27
I1765324
sg28
F1.3819444444444444
ssS'RICE KENNETH D'
p271
(dp272
g3
I905
sg4
g5
sg6
I46950
sg7
F0.004419889502762431
sg8
I01
sg9
I-3504386
sg10
S'ken.rice@enron.com'
p273
sg12
I1617011
sg13
g5
sg14
I864
sg15
g5
sg16
I18
sg17
I174839
sg18
g5
sg19
I1750000
sg20
I22542539
sg21
I42
sg22
I4
sg23
I2748364
sg24
I420636
sg25
I505050
sg26
I19794175
sg27
I23047589
sg28
F2.3333333333333335
ssS'KAMINSKI WINCENTY J'
p274
(dp275
g3
I4607
sg4
g5
sg6
I83585
sg7
F0.03711742999782939
sg8
I00
sg9
g5
sg10
S'vince.kaminski@enron.com'
p276
sg12
I323466
sg13
g5
sg14
I583
sg15
g5
sg16
I14368
sg17
I4669
sg18
g5
sg19
I400000
sg20
I976037
sg21
I41
sg22
I171
sg23
I126027
sg24
I275101
sg25
I1086821
sg26
I850010
sg27
I2062858
sg28
F0.002853563474387528
ssS'COX DAVID'
p277
(dp278
g3
I102
sg4
g5
sg6
I27861
sg7
F0.0392156862745098
sg8
I00
sg9
I-41250
sg10
S'chip.cox@enron.com'
p279
sg12
g5
sg13
g5
sg14
I71
sg15
g5
sg16
I33
sg17
I494
sg18
g5
sg19
I800000
sg20
I495633
sg21
I0
sg22
I4
sg23
I378082
sg24
I314288
sg25
I1101393
sg26
I117551
sg27
I1597026
sg28
F0.0
ssS'OVERDYKE JR JERE C'
p280
(dp281
g3
g5
sg4
g5
sg6
I18834
sg7
F0.0
sg8
I00
sg9
g5
sg10
S'jere.overdyke@enron.com'
p282
sg12
I135836
sg13
g5
sg14
g5
sg15
g5
sg16
g5
sg17
I176
sg18
g5
sg19
g5
sg20
I7307594
sg21
g5
sg22
g5
sg23
I2041016
sg24
I94941
sg25
I249787
sg26
I5266578
sg27
I7557381
sg28
F0.0
ssS'PEREIRA PAULO V. FERRAZ'
p283
(dp284
g3
g5
sg4
g5
sg6
I27942
sg7
F0.0
sg8
I00
sg9
I-101250
sg10
g5
sg12
g5
sg13
g5
sg14
g5
sg15
g5
sg16
g5
sg17
g5
sg18
I101250
sg19
g5
sg20
g5
sg21
g5
sg22
g5
sg23
g5
sg24
g5
sg25
I27942
sg26
g5
sg27
g37
sg28
F0.0
ssS'STABLER FRANK'
p285
(dp286
g3
g5
sg4
g5
sg6
I16514
sg7
F0.0
sg8
I00
sg9
g5
sg10
S'frank.stabler@enron.com'
p287
sg12
g5
sg13
g5
sg14
g5
sg15
g5
sg16
g5
sg17
I356071
sg18
g5
sg19
I500000
sg20
I511734
sg21
g5
sg22
g5
sg23
I511734
sg24
I239502
sg25
I1112087
sg26
g5
sg27
I1623821
sg28
F0.0
ssS'SKILLING JEFFREY K'
p288
(dp289
g3
I3627
sg4
g5
sg6
I29336
sg7
F0.008271298593879239
sg8
I01
sg9
g5
sg10
S'jeff.skilling@enron.com'
p290
sg12
I1920000
sg13
g5
sg14
I2042
sg15
g5
sg16
I108
sg17
I22122
sg18
g5
sg19
I5600000
sg20
I26093672
sg21
I88
sg22
I30
sg23
I6843672
sg24
I1111258
sg25
I8682716
sg26
I19250000
sg27
I34776388
sg28
F0.8148148148148148
ssS'BLAKE JR. NORMAN P'
p291
(dp292
g3
g5
sg4
g5
sg6
I1279
sg7
F0.0
sg8
I00
sg9
I-113784
sg10
g5
sg12
g5
sg13
g5
sg14
g5
sg15
g5
sg16
g5
sg17
g5
sg18
I113784
sg19
g5
sg20
g5
sg21
g5
sg22
g5
sg23
g5
sg24
g5
sg25
I1279
sg26
g5
sg27
g37
sg28
F0.0
ssS'SHERRICK JEFFREY B'
p293
(dp294
g3
I613
sg4
g5
sg6
g5
sg7
F0.02936378466557912
sg8
I00
sg9
g5
sg10
S'jeffrey.sherrick@enron.com'
p295
sg12
g5
sg13
g5
sg14
I583
sg15
g5
sg16
I25
sg17
g5
sg18
g5
sg19
g5
sg20
I1832468
sg21
I39
sg22
I18
sg23
I405999
sg24
g5
sg25
g5
sg26
I1426469
sg27
g37
sg28
F1.56
ssS'PRENTICE JAMES'
p296
(dp297
g3
g5
sg4
I564348
sg6
g5
sg7
F0.0
sg8
I00
sg9
g5
sg10
S'james.prentice@enron.com'
p298
sg12
g5
sg13
g5
sg14
g5
sg15
g5
sg16
g5
sg17
g5
sg18
g5
sg19
g5
sg20
I1095040
sg21
g5
sg22
g5
sg23
I208809
sg24
g5
sg25
I564348
sg26
I886231
sg27
I1659388
sg28
F0.0
ssS'GRAY RODNEY'
p299
(dp300
g3
g5
sg4
I93585
sg6
g5
sg7
F0.0
sg8
I00
sg9
g5
sg10
g5
sg12
I365625
sg13
g5
sg14
g5
sg15
g5
sg16
g5
sg17
I680833
sg18
g5
sg19
g5
sg20
g5
sg21
g5
sg22
g5
sg23
g5
sg24
I6615
sg25
I1146658
sg26
g5
sg27
g37
sg28
F0.0
ssS'PICKERING MARK R'
p301
(dp302
g3
I898
sg4
g5
sg6
I31653
sg7
F0.0
sg8
I00
sg9
g5
sg10
S'mark.pickering@enron.com'
p303
sg12
g5
sg13
g5
sg14
I728
sg15
I400000
sg16
I67
sg17
g5
sg18
g5
sg19
I300000
sg20
I28798
sg21
I7
sg22
I0
sg23
g5
sg24
I655037
sg25
I1386690
sg26
I28798
sg27
I1415488
sg28
F0.1044776119402985
ssS'NOLES JAMES L'
p304
(dp305
g3
g5
sg4
I774401
sg6
g5
sg7
F0.0
sg8
I00
sg9
g5
sg10
g5
sg12
g5
sg13
I-94556
sg14
g5
sg15
g5
sg16
g5
sg17
g5
sg18
g5
sg19
g5
sg20
I368705
sg21
g5
sg22
g5
sg23
I463261
sg24
g5
sg25
I774401
sg26
g5
sg27
I1143106
sg28
F0.0
ssS'KEAN STEVEN J'
p306
(dp307
g3
I12754
sg4
g5
sg6
I41953
sg7
F0.03034342167163243
sg8
I00
sg9
g5
sg10
S'steven.kean@enron.com'
p308
sg12
I300000
sg13
g5
sg14
I3639
sg15
g5
sg16
I6759
sg17
I1231
sg18
g5
sg19
I1000000
sg20
I6153642
sg21
I140
sg22
I387
sg23
I4131594
sg24
I404338
sg25
I1747522
sg26
I2022048
sg27
I7901164
sg28
F0.020713123243083296
ssS'FOWLER PEGGY'
p309
(dp310
g3
I517
sg4
g5
sg6
g5
sg7
F0.0
sg8
I00
sg9
g5
sg10
S'kulvinder.fowler@enron.com'
p311
sg12
g5
sg13
g5
sg14
I10
sg15
g5
sg16
I36
sg17
g5
sg18
g5
sg19
g5
sg20
I1884748
sg21
I0
sg22
I0
sg23
I560170
sg24
g5
sg25
g5
sg26
I1324578
sg27
g37
sg28
F0.0
ssS'WASAFF GEORGE'
p312
(dp313
g3
I400
sg4
I831299
sg6
g5
sg7
F0.0175
sg8
I00
sg9
I-583325
sg10
S'george.wasaff@enron.com'
p314
sg12
I200000
sg13
g5
sg14
I337
sg15
g5
sg16
I30
sg17
I1425
sg18
g5
sg19
I325000
sg20
I2056427
sg21
I22
sg22
I7
sg23
I388167
sg24
I259996
sg25
I1034395
sg26
I1668260
sg27
I3090822
sg28
F0.7333333333333333
ssS'WHITE JR THOMAS E'
p315
(dp316
g3
g5
sg4
g5
sg6
I81353
sg7
F0.0
sg8
I00
sg9
g5
sg10
S'thomas.white@enron.com'
p317
sg12
g5
sg13
g5
sg14
g5
sg15
g5
sg16
g5
sg17
I1085463
sg18
g5
sg19
I450000
sg20
I15144123
sg21
g5
sg22
g5
sg23
I13847074
sg24
I317543
sg25
I1934359
sg26
I1297049
sg27
I17078482
sg28
F0.0
ssS'CHRISTODOULOU DIOMEDES'
p318
(dp319
g3
g5
sg4
g5
sg6
g5
sg7
F0.0
sg8
I00
sg9
g5
sg10
S'diomedes.christodoulou@enron.com'
p320
sg12
g5
sg13
g5
sg14
g5
sg15
g5
sg16
g5
sg17
g5
sg18
g5
sg19
g5
sg20
I6077885
sg21
g5
sg22
g5
sg23
I950730
sg24
g5
sg25
g5
sg26
I5127155
sg27
g37
sg28
F0.0
ssS'ALLEN PHILLIP K'
p321
(dp322
g3
I2902
sg4
I2869717
sg6
I13868
sg7
F0.022398345968297727
sg8
I00
sg9
I-3081055
sg10
S'phillip.allen@enron.com'
p323
sg12
I304805
sg13
I-126027
sg14
I1407
sg15
g5
sg16
I2195
sg17
I152
sg18
g5
sg19
I4175000
sg20
I1729541
sg21
I47
sg22
I65
sg23
I126027
sg24
I201955
sg25
I4484442
sg26
I1729541
sg27
I6213983
sg28
F0.0214123006833713
ssS'SHARP VICTORIA T'
p324
(dp325
g3
I3136
sg4
I187469
sg6
I116337
sg7
F0.001913265306122449
sg8
I00
sg9
g5
sg10
S'vicki.sharp@enron.com'
p326
sg12
I422158
sg13
g5
sg14
I2477
sg15
g5
sg16
I136
sg17
I2401
sg18
g5
sg19
I600000
sg20
I494136
sg21
I24
sg22
I6
sg23
I213063
sg24
I248146
sg25
I1576511
sg26
I281073
sg27
I2070647
sg28
F0.17647058823529413
ssS'JAEDICKE ROBERT'
p327
(dp328
g3
g5
sg4
g5
sg6
g5
sg7
F0.0
sg8
I00
sg9
I-25000
sg10
g5
sg12
g5
sg13
I-44093
sg14
g5
sg15
g5
sg16
g5
sg17
g5
sg18
I108750
sg19
g5
sg20
I431750
sg21
g5
sg22
g5
sg23
I44093
sg24
g5
sg25
I83750
sg26
I431750
sg27
I515500
sg28
F0.0
ssS'WINOKUR JR. HERBERT S'
p329
(dp330
g3
g5
sg4
g5
sg6
I1413
sg7
F0.0
sg8
I00
sg9
I-25000
sg10
g5
sg12
g5
sg13
g5
sg14
g5
sg15
g5
sg16
g5
sg17
g5
sg18
I108579
sg19
g5
sg20
g5
sg21
g5
sg22
g5
sg23
g5
sg24
g5
sg25
I84992
sg26
g5
sg27
g37
sg28
F0.0
ssS'BROWN MICHAEL'
p331
(dp332
g3
I1486
sg4
g5
sg6
I49288
sg7
F0.0006729475100942127
sg8
I00
sg9
g5
sg10
S'michael.brown@enron.com'
p333
sg12
g5
sg13
g5
sg14
I761
sg15
g5
sg16
I41
sg17
g5
sg18
g5
sg19
g5
sg20
g5
sg21
I13
sg22
I1
sg23
g5
sg24
g5
sg25
I49288
sg26
g5
sg27
g37
sg28
F0.3170731707317073
ssS'BADUM JAMES P'
p334
(dp335
g3
g5
sg4
I178980
sg6
I3486
sg7
F0.0
sg8
I00
sg9
g5
sg10
g5
sg12
g5
sg13
g5
sg14
g5
sg15
g5
sg16
g5
sg17
g5
sg18
g5
sg19
g5
sg20
I257817
sg21
g5
sg22
g5
sg23
g5
sg24
g5
sg25
I182466
sg26
I257817
sg27
I440283
sg28
F0.0
ssS'HUGHES JAMES A'
p336
(dp337
g3
I719
sg4
g5
sg6
g5
sg7
F0.006954102920723227
sg8
I00
sg9
g5
sg10
S'james.hughes@enron.com'
p338
sg12
g5
sg13
g5
sg14
I589
sg15
g5
sg16
I34
sg17
g5
sg18
g5
sg19
g5
sg20
I1118394
sg21
I35
sg22
I5
sg23
I363428
sg24
g5
sg25
g5
sg26
I754966
sg27
g37
sg28
F1.0294117647058822
ssS'REYNOLDS LAWRENCE'
p339
(dp340
g3
g5
sg4
I51365
sg6
I8409
sg7
F0.0
sg8
I00
sg9
I-200000
sg10
g5
sg12
I156250
sg13
I-140264
sg14
g5
sg15
g5
sg16
g5
sg17
I202052
sg18
g5
sg19
I100000
sg20
I4221891
sg21
g5
sg22
g5
sg23
I201483
sg24
I76399
sg25
I394475
sg26
I4160672
sg27
I4616366
sg28
F0.0
ssS'DIMICHELE RICHARD G'
p341
(dp342
g3
g5
sg4
g5
sg6
I35812
sg7
F0.0
sg8
I00
sg9
g5
sg10
S'richard.dimichele@enron.com'
p343
sg12
I694862
sg13
g5
sg14
g5
sg15
g5
sg16
g5
sg17
I374689
sg18
g5
sg19
I1000000
sg20
I8317782
sg21
g5
sg22
g5
sg23
I126027
sg24
I262788
sg25
I2368151
sg26
I8191755
sg27
I10685933
sg28
F0.0
ssS'BHATNAGAR SANJAY'
p344
(dp345
g3
I523
sg4
g5
sg6
g5
sg7
F0.0019120458891013384
sg8
I00
sg9
g5
sg10
S'sanjay.bhatnagar@enron.com'
p346
sg12
g5
sg13
I15456290
sg14
I463
sg15
g5
sg16
I29
sg17
I137864
sg18
I137864
sg19
g5
sS'total_stock_value'
p347
S'NaN'
p348
sg21
I0
sg22
I1
sg23
I-2604490
sg24
g5
sg25
I15456290
sg26
I2604490
sg27
g37
sg28
F0.0
ssS'CARTER REBECCA C'
p349
(dp350
g3
I312
sg4
g5
sg6
g5
sg7
F0.022435897435897436
sg8
I00
sg9
I-159792
sg10
S'rebecca.carter@enron.com'
p351
sg12
I75000
sg13
I-307301
sg14
I196
sg15
g5
sg16
I15
sg17
I540
sg18
g5
sg19
I300000
sg20
g5
sg21
I29
sg22
I7
sg23
I307301
sg24
I261809
sg25
I477557
sg26
g5
sg27
g37
sg28
F1.9333333333333333
ssS'BUCHANAN HAROLD G'
p352
(dp353
g3
I1088
sg4
g5
sg6
I600
sg7
F0.0
sg8
I00
sg9
g5
sg10
S'john.buchanan@enron.com'
p354
sg12
I304805
sg13
g5
sg14
I23
sg15
g5
sg16
I125
sg17
I1215
sg18
g5
sg19
I500000
sg20
I1014505
sg21
I0
sg22
I0
sg23
I189041
sg24
I248017
sg25
I1054637
sg26
I825464
sg27
I2069142
sg28
F0.0
ssS'YEAP SOON'
p355
(dp356
g3
g5
sg4
g5
sg6
I55097
sg7
F0.0
sg8
I00
sg9
g5
sg10
g5
sg12
g5
sg13
g5
sg14
g5
sg15
g5
sg16
g5
sg17
g5
sg18
g5
sg19
g5
sg20
I192758
sg21
g5
sg22
g5
sg23
g5
sg24
g5
sg25
I55097
sg26
I192758
sg27
I247855
sg28
F0.0
ssS'MURRAY JULIA H'
p357
(dp358
g3
I2192
sg4
g5
sg6
I57580
sg7
F0.0009124087591240876
sg8
I00
sg9
g5
sg10
S'julia.murray@enron.com'
p359
sg12
I125000
sg13
g5
sg14
I395
sg15
g5
sg16
I45
sg17
I330
sg18
g5
sg19
I400000
sg20
I597461
sg21
I11
sg22
I2
sg23
I196983
sg24
I229284
sg25
I812194
sg26
I400478
sg27
I1409655
sg28
F0.24444444444444444
ssS'GARLAND C KEVIN'
p360
(dp361
g3
I209
sg4
g5
sg6
I48405
sg7
F0.1291866028708134
sg8
I00
sg9
g5
sg10
S'kevin.garland@enron.com'
p362
sg12
I375304
sg13
g5
sg14
I178
sg15
g5
sg16
I44
sg17
I60814
sg18
g5
sg19
I850000
sg20
I896153
sg21
I10
sg22
I27
sg23
I259907
sg24
I231946
sg25
I1566469
sg26
I636246
sg27
I2462622
sg28
F0.22727272727272727
ssS'DODSON KEITH'
p363
(dp364
g3
I176
sg4
g5
sg6
I28164
sg7
F0.017045454545454544
sg8
I00
sg9
g5
sg10
S'keith.dodson@enron.com'
p365
sg12
g5
sg13
g5
sg14
I114
sg15
g5
sg16
I14
sg17
I774
sg18
g5
sg19
I70000
sg20
g5
sg21
I10
sg22
I3
sg23
g5
sg24
I221003
sg25
I319941
sg26
g5
sg27
g37
sg28
F0.7142857142857143
ssS'YEAGER F SCOTT'
p366
(dp367
g3
g5
sg4
g5
sg6
I53947
sg7
F0.0
sg8
I01
sg9
g5
sg10
S'scott.yeager@enron.com'
p368
sg12
g5
sg13
g5
sg14
g5
sg15
g5
sg16
g5
sg17
I147950
sg18
g5
sg19
g5
sg20
I11884758
sg21
g5
sg22
g5
sg23
I3576206
sg24
I158403
sg25
I360300
sg26
I8308552
sg27
I12245058
sg28
F0.0
ssS'HIRKO JOSEPH'
p369
(dp370
g3
g5
sg4
I10259
sg6
I77978
sg7
F0.0
sg8
I01
sg9
g5
sg10
S'joe.hirko@enron.com'
p371
sg12
g5
sg13
g5
sg14
g5
sg15
g5
sg16
g5
sg17
I2856
sg18
g5
sg19
g5
sg20
I30766064
sg21
g5
sg22
g5
sg23
g5
sg24
g5
sg25
I91093
sg26
I30766064
sg27
I30857157
sg28
F0.0
ssS'DIETRICH JANET R'
p372
(dp373
g3
I2572
sg4
g5
sg6
I3475
sg7
F0.005443234836702955
sg8
I00
sg9
g5
sg10
S'janet.dietrich@enron.com'
p374
sg12
I556416
sg13
g5
sg14
I1902
sg15
g5
sg16
I63
sg17
I473
sg18
g5
sg19
I600000
sg20
I1865087
sg21
I305
sg22
I14
sg23
I315068
sg24
I250100
sg25
I1410464
sg26
I1550019
sg27
I3275551
sg28
F4.841269841269841
ssS'DERRICK JR. JAMES V'
p375
(dp376
g3
I2181
sg4
g5
sg6
I51124
sg7
F0.009170105456212746
sg8
I00
sg9
I-1284000
sg10
S'james.derrick@enron.com'
p377
sg12
I484000
sg13
I-1787380
sg14
I1401
sg15
g5
sg16
I909
sg17
I7482
sg18
g5
sg19
I800000
sg20
I8831913
sg21
I64
sg22
I20
sg23
I1787380
sg24
I492375
sg25
I550981
sg26
I8831913
sg27
I9382894
sg28
F0.0704070407040704
ssS'FREVERT MARK A'
p378
(dp379
g3
I3275
sg4
I6426990
sg6
I86987
sg7
F0.00183206106870229
sg8
I00
sg9
I-3367011
sg10
S'mark.frevert@enron.com'
p380
sg12
I1617011
sg13
g5
sg14
I2979
sg15
I2000000
sg16
I21
sg17
I7427621
sg18
g5
sg19
I2000000
sg20
I14622185
sg21
I242
sg22
I6
sg23
I4188667
sg24
I1060932
sg25
I17252530
sg26
I10433518
sg27
I31874715
sg28
F11.523809523809524
ssS'PAI LOU L'
p381
(dp382
g3
g5
sg4
g5
sg6
I32047
sg7
F0.0
sg8
I00
sg9
g5
sg10
S'lou.pai@enron.com'
p383
sg12
g5
sg13
g5
sg14
g5
sg15
g5
sg16
g5
sg17
I1829457
sg18
g5
sg19
I1000000
sg20
I23817930
sg21
g5
sg22
g5
sg23
I8453763
sg24
I261879
sg25
I3123383
sg26
I15364167
sg27
I26941313
sg28
F0.0
ssS'BAY FRANKLIN R'
p384
(dp385
g3
g5
sg4
I260455
sg6
I129142
sg7
F0.0
sg8
I00
sg9
I-201641
sg10
S'frank.bay@enron.com'
p386
sg12
g5
sg13
I-82782
sg14
g5
sg15
g5
sg16
g5
sg17
I69
sg18
g5
sg19
I400000
sg20
I63014
sg21
g5
sg22
g5
sg23
I145796
sg24
I239671
sg25
I827696
sg26
g5
sg27
I890710
sg28
F0.0
ssS'HAYSLETT RODERICK J'
p387
(dp388
g3
I2649
sg4
g5
sg6
g5
sg7
F0.014345035862589657
sg8
I00
sg9
g5
sg10
S'rod.hayslett@enron.com'
p389
sg12
g5
sg13
g5
sg14
I571
sg15
g5
sg16
I1061
sg17
g5
sg18
g5
sg19
g5
sg20
I346663
sg21
I35
sg22
I38
sg23
I346663
sg24
g5
sg25
g5
sg26
g5
sg27
g37
sg28
F0.03298774740810556
ssS'FUGH JOHN L'
p390
(dp391
g3
g5
sg4
I50591
sg6
g5
sg7
F0.0
sg8
I00
sg9
g5
sg10
g5
sg12
g5
sg13
g5
sg14
g5
sg15
g5
sg16
g5
sg17
g5
sg18
g5
sg19
g5
sg20
I176378
sg21
g5
sg22
g5
sg23
g5
sg24
g5
sg25
I50591
sg26
I176378
sg27
I226969
sg28
F0.0
ssS'FALLON JAMES B'
p392
(dp393
g3
I1755
sg4
g5
sg6
I95924
sg7
F0.021082621082621083
sg8
I00
sg9
g5
sg10
S'jim.fallon@enron.com'
p394
sg12
I374347
sg13
g5
sg14
I1604
sg15
g5
sg16
I75
sg17
I401481
sg18
g5
sg19
I2500000
sg20
I2332399
sg21
I42
sg22
I37
sg23
I1392142
sg24
I304588
sg25
I3676340
sg26
I940257
sg27
I6008739
sg28
F0.56
ssS'KOENIG MARK E'
p395
(dp396
g3
I2374
sg4
g5
sg6
I127017
sg7
F0.006318449873631003
sg8
I01
sg9
g5
sg10
S'mark.koenig@enron.com'
p397
sg12
I300000
sg13
g5
sg14
I2271
sg15
g5
sg16
I61
sg17
I150458
sg18
g5
sg19
I700000
sg20
I1920055
sg21
I53
sg22
I15
sg23
I1248318
sg24
I309946
sg25
I1587421
sg26
I671737
sg27
I3507476
sg28
F0.8688524590163934
ssS'SAVAGE FRANK'
p398
(dp399
g3
g5
sg4
g5
sg6
g5
sg7
F0.0
sg8
I00
sg9
I-121284
sg10
g5
sg12
g5
sg13
g5
sg14
g5
sg15
g5
sg16
g5
sg17
g5
sg18
I125034
sg19
g5
sg20
g5
sg21
g5
sg22
g5
sg23
g5
sg24
g5
sg25
I3750
sg26
g5
sg27
g37
sg28
F0.0
ssS'IZZO LAWRENCE L'
p400
(dp401
g3
I496
sg4
g5
sg6
I28093
sg7
F0.010080645161290322
sg8
I00
sg9
g5
sg10
S'larry.izzo@enron.com'
p402
sg12
I312500
sg13
g5
sg14
I437
sg15
g5
sg16
I19
sg17
I1553729
sg18
g5
sg19
g5
sg20
I5819980
sg21
I28
sg22
I5
sg23
I3654808
sg24
I85274
sg25
I1979596
sg26
I2165172
sg27
I7799576
sg28
F1.4736842105263157
ssS'TILNEY ELIZABETH A'
p403
(dp404
g3
I460
sg4
g5
sg6
g5
sg7
F0.02391304347826087
sg8
I00
sg9
I-575000
sg10
S'elizabeth.tilney@enron.com'
p405
sg12
I275000
sg13
g5
sg14
I379
sg15
g5
sg16
I19
sg17
I152055
sg18
g5
sg19
I300000
sg20
I1168042
sg21
I10
sg22
I11
sg23
I576792
sg24
I247338
sg25
I399393
sg26
I591250
sg27
I1567435
sg28
F0.5263157894736842
ssS'MARTIN AMANDA K'
p406
(dp407
g3
I1522
sg4
I85430
sg6
I8211
sg7
F0.0
sg8
I00
sg9
g5
sg10
S'a..martin@enron.com'
p408
sg12
I5145434
sg13
g5
sg14
I477
sg15
g5
sg16
I230
sg17
I2818454
sg18
g5
sg19
g5
sg20
I2070306
sg21
I8
sg22
I0
sg23
g5
sg24
I349487
sg25
I8407016
sg26
I2070306
sg27
I10477322
sg28
F0.034782608695652174
ssS'BUY RICHARD B'
p409
(dp410
g3
I3523
sg4
I649584
sg6
g5
sg7
F0.02015327845586148
sg8
I00
sg9
I-694862
sg10
S'rick.buy@enron.com'
p411
sg12
I769862
sg13
g5
sg14
I2333
sg15
g5
sg16
I1053
sg17
I400572
sg18
g5
sg19
I900000
sg20
I3444470
sg21
I156
sg22
I71
sg23
I901657
sg24
I330546
sg25
I2355702
sg26
I2542813
sg27
I5800172
sg28
F0.14814814814814814
ssS'GRAMM WENDY L'
p412
(dp413
g3
g5
sg4
g5
sg6
g5
sg7
F0.0
sg8
I00
sg9
g5
sg10
g5
sg12
g5
sg13
g5
sg14
g5
sg15
g5
sg16
g5
sg17
g5
sg18
I119292
sg19
g5
sg20
g5
sg21
g5
sg22
g5
sg23
g5
sg24
g5
sg25
I119292
sg26
g5
sg27
g37
sg28
F0.0
ssS'CAUSEY RICHARD A'
p414
(dp415
g3
I1892
sg4
g5
sg6
I30674
sg7
F0.006342494714587738
sg8
I01
sg9
I-235000
sg10
S'richard.causey@enron.com'
p416
sg12
I350000
sg13
g5
sg14
I1585
sg15
g5
sg16
I49
sg17
I307895
sg18
g5
sg19
I1000000
sg20
I2502063
sg21
I58
sg22
I12
sg23
I2502063
sg24
I415189
sg25
I1868758
sg26
g5
sg27
I4370821
sg28
F1.183673469387755
ssS'TAYLOR MITCHELL S'
p417
(dp418
g3
I533
sg4
I227449
sg6
g5
sg7
F0.0
sg8
I00
sg9
g5
sg10
S'mitchell.taylor@enron.com'
p419
sg12
g5
sg13
g5
sg14
I300
sg15
g5
sg16
I29
sg17
g5
sg18
g5
sg19
I600000
sg20
I3745048
sg21
I0
sg22
I0
sg23
I563798
sg24
I265214
sg25
I1092663
sg26
I3181250
sg27
I4837711
sg28
F0.0
ssS'DONAHUE JR JEFFREY M'
p420
(dp421
g3
I865
sg4
g5
sg6
I96268
sg7
F0.012716763005780347
sg8
I00
sg9
I-300000
sg10
S'jeff.donahue@enron.com'
p422
sg12
g5
sg13
g5
sg14
I772
sg15
g5
sg16
I22
sg17
I891
sg18
g5
sg19
I800000
sg20
I1080988
sg21
I188
sg22
I11
sg23
I315068
sg24
I278601
sg25
I875760
sg26
I765920
sg27
I1956748
sg28
F8.545454545454545
ssS'GLISAN JR BEN F'
p423
(dp424
g3
I873
sg4
g5
sg6
I125978
sg7
F0.006872852233676976
sg8
I01
sg9
g5
sg10
S'ben.glisan@enron.com'
p425
sg12
I71023
sg13
g5
sg14
I874
sg15
g5
sg16
I16
sg17
I200308
sg18
g5
sg19
I600000
sg20
I778546
sg21
I52
sg22
I6
sg23
I393818
sg24
I274975
sg25
I1272284
sg26
I384728
sg27
I2050830
sg28
F3.25
ss.